; Function Attrs: nounwind uwtable
define range(i32 -1, 2) i32 @H5Aexists(i64 noundef %0, ptr noundef %1) local_unnamed_addr #0 {
  %3 = alloca i8, align 1
  %4 = load i8, ptr @H5_libinit_g, align 1
  %5 = trunc i8 %4 to i1
  %6 = load i8, ptr @H5_libterm_g, align 1
  %7 = trunc i8 %6 to i1
  %8 = select i1 %5, i1 true, i1 %7
  br i1 %8, label %16, label %9

9:                                                ; preds = %2
  %10 = tail call i32 @H5_init_library() #4
  %11 = icmp slt i32 %10, 0
  br i1 %11, label %12, label %16

12:                                               ; preds = %9
  %13 = load i64, ptr @H5E_FUNC_g, align 8
  %14 = load i64, ptr @H5E_CANTINIT_g, align 8
  %15 = tail call i32 (ptr, ptr, i32, i64, i64, ptr, ...) @H5E_printf_stack(ptr noundef nonnull @.str, ptr noundef nonnull @__func__.H5Aexists, i32 noundef 2348, i64 noundef %13, i64 noundef %14, ptr noundef nonnull @.str.1) #4
  br label %.thread17

16:                                               ; preds = %9, %2
  %17 = tail call i32 @H5CX_push() #4
  %18 = icmp slt i32 %17, 0
  br i1 %18, label %19, label %23

19:                                               ; preds = %16
  %20 = load i64, ptr @H5E_FUNC_g, align 8
  %21 = load i64, ptr @H5E_CANTSET_g, align 8
  %22 = tail call i32 (ptr, ptr, i32, i64, i64, ptr, ...) @H5E_printf_stack(ptr noundef nonnull @.str, ptr noundef nonnull @__func__.H5Aexists, i32 noundef 2348, i64 noundef %20, i64 noundef %21, ptr noundef nonnull @.str.2) #4
  br label %.thread17

23:                                               ; preds = %16
  %24 = tail call i32 @H5E_clear_stack() #4
  store i8 0, ptr %3, align 1
  %25 = call fastcc i32 @H5A__exists_api_common(i64 noundef %0, ptr noundef %1, ptr noundef nonnull %3, ptr noundef null, ptr noundef null)
  %26 = icmp slt i32 %25, 0
  br i1 %26, label %.thread22, label %31

.thread22:                                        ; preds = %23
  %27 = load i64, ptr @H5E_ATTR_g, align 8
  %28 = load i64, ptr @H5E_CANTGET_g, align 8
  %29 = call i32 (ptr, ptr, i32, i64, i64, ptr, ...) @H5E_printf_stack(ptr noundef nonnull @.str, ptr noundef nonnull @__func__.H5Aexists, i32 noundef 2353, i64 noundef %27, i64 noundef %28, ptr noundef nonnull @.str.78) #4
  %30 = call i32 @H5CX_pop(i1 noundef zeroext true) #4
  br label %.thread17

31:                                               ; preds = %23
  %32 = load i8, ptr %3, align 1
  %33 = and i8 %32, 1
  %34 = zext nneg i8 %33 to i32
  %35 = call i32 @H5CX_pop(i1 noundef zeroext true) #4
  br label %37

.thread17:                                        ; preds = %19, %12, %.thread22
  %36 = call i32 @H5E_dump_api_stack() #4
  br label %37

37:                                               ; preds = %31, %.thread17
  %.081220 = phi i32 [ -1, %.thread17 ], [ %34, %31 ]
  ret i32 %.081220
}